; Function Attrs: nounwind sspstrong uwtable
define dso_local zeroext i1 @visit_type_BlockdevCacheInfo_members(ptr noundef %v, ptr noundef %obj, ptr noundef %errp) local_unnamed_addr #0 {
entry:
  %call = tail call zeroext i1 @visit_type_bool(ptr noundef %v, ptr noundef nonnull @.str.60, ptr noundef %obj, ptr noundef %errp) #5
  br i1 %call, label %if.end, label %return

if.end:                                           ; preds = %entry
  %direct = getelementptr inbounds nuw i8, ptr %obj, i64 1
  %call1 = tail call zeroext i1 @visit_type_bool(ptr noundef %v, ptr noundef nonnull @.str.61, ptr noundef nonnull %direct, ptr noundef %errp) #5
  br i1 %call1, label %if.end3, label %return

if.end3:                                          ; preds = %if.end
  %no_flush = getelementptr inbounds nuw i8, ptr %obj, i64 2
  %call4 = tail call zeroext i1 @visit_type_bool(ptr noundef %v, ptr noundef nonnull @.str.62, ptr noundef nonnull %no_flush, ptr noundef %errp) #5
  br label %return

return:                                           ; preds = %if.end3, %if.end, %entry
  %retval.0 = phi i1 [ false, %entry ], [ false, %if.end ], [ %call4, %if.end3 ]
  ret i1 %retval.0
}